(lp0
(F-18.44999999999999
F-19.94999999999999
tp1
a(F-14.299999999999997
F-18.849999999999994
tp2
a(F-13.649999999999991
F-18.849999999999994
tp3
a(F-14.399999999999991
F-18.799999999999997
tp4
a(F-13.75
F-18.799999999999997
tp5
a(F-13.549999999999997
F-18.799999999999997
tp6
a(F-14.549999999999997
F-18.75
tp7
a(F-13.949999999999989
F-18.75
tp8
a(F-13.649999999999991
F-18.69999999999999
tp9
a(F-8.349999999999994
F-18.69999999999999
tp10
a(F-14.799999999999997
F-18.64999999999999
tp11
a(F-13.199999999999989
F-18.64999999999999
tp12
a(F-8.099999999999994
F-18.64999999999999
tp13
a(F-7.849999999999994
F-18.64999999999999
tp14
a(F-13.399999999999991
F-18.599999999999994
tp15
a(F-8.599999999999994
F-18.599999999999994
tp16
a(F-7.949999999999989
F-18.599999999999994
tp17
a(F-15.149999999999991
F-18.549999999999997
tp18
a(F-12.899999999999991
F-18.549999999999997
tp19
a(F-7.799999999999997
F-18.549999999999997
tp20
a(F-13.199999999999989
F-18.5
tp21
a(F-12.799999999999997
F-18.5
tp22
a(F-7.5
F-18.5
tp23
a(F-12.75
F-18.44999999999999
tp24
a(F-7.349999999999994
F-18.44999999999999
tp25
a(F-12.849999999999994
F-18.39999999999999
tp26
a(F-9.149999999999991
F-18.39999999999999
tp27
a(F-7.299999999999997
F-18.39999999999999
tp28
a(F-15.599999999999994
F-18.349999999999994
tp29
a(F-12.399999999999991
F-18.349999999999994
tp30
a(F-11.899999999999991
F-18.349999999999994
tp31
a(F-15.549999999999997
F-18.299999999999997
tp32
a(F-12.299999999999997
F-18.299999999999997
tp33
a(F-11.449999999999989
F-18.299999999999997
tp34
a(F-10.799999999999997
F-18.299999999999997
tp35
a(F-9.25
F-18.299999999999997
tp36
a(F-12.5
F-18.25
tp37
a(F-12.0
F-18.25
tp38
a(F-11.649999999999991
F-18.25
tp39
a(F-11.399999999999991
F-18.25
tp40
a(F-11.149999999999991
F-18.25
tp41
a(F-10.75
F-18.25
tp42
a(F-6.8999999999999915
F-18.25
tp43
a(F-15.599999999999994
F-18.19999999999999
tp44
a(F-10.549999999999997
F-18.19999999999999
tp45
a(F-10.099999999999994
F-18.19999999999999
tp46
a(F-9.849999999999994
F-18.19999999999999
tp47
a(F-9.5
F-18.19999999999999
tp48
a(F-6.6499999999999915
F-18.19999999999999
tp49
a(F-6.799999999999997
F-18.14999999999999
tp50
a(F-15.849999999999994
F-18.049999999999997
tp51
a(F-6.699999999999989
F-18.0
tp52
a(F-15.899999999999991
F-17.94999999999999
tp53
a(F-6.449999999999989
F-17.94999999999999
tp54
a(F-6.299999999999997
F-17.89999999999999
tp55
a(F-6.449999999999989
F-17.799999999999997
tp56
a(F-16.14999999999999
F-17.75
tp57
a(F-16.19999999999999
F-17.69999999999999
tp58
a(F-6.1499999999999915
F-17.69999999999999
tp59
a(F-6.099999999999994
F-17.64999999999999
tp60
a(F-16.25
F-17.599999999999994
tp61
a(F-6.1499999999999915
F-17.549999999999997
tp62
a(F-6.049999999999997
F-17.5
tp63
a(F-6.099999999999994
F-17.39999999999999
tp64
a(F-6.049999999999997
F-17.349999999999994
tp65
a(F-16.549999999999997
F-17.25
tp66
a(F-5.8999999999999915
F-17.25
tp67
a(F-5.799999999999997
F-17.14999999999999
tp68
a(F-5.8999999999999915
F-17.099999999999994
tp69
a(F-16.549999999999997
F-17.049999999999997
tp70
a(F-12.599999999999994
F-17.049999999999997
tp71
a(F-12.099999999999994
F-17.049999999999997
tp72
a(F-11.5
F-17.049999999999997
tp73
a(F-5.849999999999994
F-17.049999999999997
tp74
a(F-12.949999999999989
F-17.0
tp75
a(F-11.449999999999989
F-17.0
tp76
a(F-11.0
F-17.0
tp77
a(F-10.649999999999991
F-17.0
tp78
a(F-10.299999999999997
F-17.0
tp79
a(F-9.949999999999989
F-17.0
tp80
a(F-16.75
F-16.94999999999999
tp81
a(F-11.649999999999991
F-16.94999999999999
tp82
a(F-10.199999999999989
F-16.94999999999999
tp83
a(F-5.799999999999997
F-16.94999999999999
tp84
a(F-11.75
F-16.89999999999999
tp85
a(F-9.349999999999994
F-16.89999999999999
tp86
a(F-9.399999999999991
F-16.849999999999994
tp87
a(F-16.75
F-16.799999999999997
tp88
a(F-13.25
F-16.799999999999997
tp89
a(F-16.64999999999999
F-16.75
tp90
a(F-9.099999999999994
F-16.75
tp91
a(F-13.449999999999989
F-16.69999999999999
tp92
a(F-16.75
F-16.64999999999999
tp93
a(F-16.849999999999994
F-16.599999999999994
tp94
a(F-13.5
F-16.599999999999994
tp95
a(F-8.849999999999994
F-16.599999999999994
tp96
a(F-5.599999999999994
F-16.599999999999994
tp97
a(F-8.75
F-16.549999999999997
tp98
a(F-13.75
F-16.5
tp99
a(F-8.699999999999989
F-16.44999999999999
tp100
a(F-16.89999999999999
F-16.39999999999999
tp101
a(F-8.549999999999997
F-16.39999999999999
tp102
a(F-8.449999999999989
F-16.349999999999994
tp103
a(F-14.199999999999989
F-16.299999999999997
tp104
a(F-8.5
F-16.299999999999997
tp105
a(F-5.549999999999997
F-16.299999999999997
tp106
a(F-16.849999999999994
F-16.19999999999999
tp107
a(F-8.299999999999997
F-16.19999999999999
tp108
a(F-14.349999999999994
F-16.14999999999999
tp109
a(F-5.449999999999989
F-16.14999999999999
tp110
a(F-16.849999999999994
F-16.049999999999997
tp111
a(F-5.5
F-16.049999999999997
tp112
a(F-8.049999999999997
F-16.0
tp113
a(F-16.89999999999999
F-15.949999999999989
tp114
a(F-5.5
F-15.899999999999991
tp115
a(F-5.549999999999997
F-15.849999999999994
tp116
a(F-14.399999999999991
F-15.799999999999997
tp117
a(F-16.89999999999999
F-15.75
tp118
a(F-5.449999999999989
F-15.75
tp119
a(F-7.949999999999989
F-15.649999999999991
tp120
a(F-7.8999999999999915
F-15.599999999999994
tp121
a(F-16.94999999999999
F-15.549999999999997
tp122
a(F-14.449999999999989
F-15.5
tp123
a(F-7.949999999999989
F-15.5
tp124
a(F-16.89999999999999
F-15.449999999999989
tp125
a(F-7.8999999999999915
F-15.399999999999991
tp126
a(F-7.949999999999989
F-15.349999999999994
tp127
a(F-5.549999999999997
F-15.299999999999997
tp128
a(F-14.399999999999991
F-15.25
tp129
a(F-7.949999999999989
F-15.199999999999989
tp130
a(F-5.549999999999997
F-15.149999999999991
tp131
a(F-8.0
F-15.099999999999994
tp132
a(F-14.5
F-15.049999999999997
tp133
a(F-7.949999999999989
F-15.049999999999997
tp134
a(F-5.549999999999997
F-15.0
tp135
a(F-8.0
F-14.949999999999989
tp136
a(F-17.0
F-14.849999999999994
tp137
a(F-16.849999999999994
F-14.849999999999994
tp138
a(F-5.549999999999997
F-14.849999999999994
tp139
a(F-8.0
F-14.75
tp140
a(F-16.89999999999999
F-14.699999999999989
tp141
a(F-5.5
F-14.699999999999989
tp142
a(F-7.949999999999989
F-14.599999999999994
tp143
a(F-14.5
F-14.549999999999997
tp144
a(F-5.549999999999997
F-14.549999999999997
tp145
a(F-14.399999999999991
F-14.449999999999989
tp146
a(F-16.89999999999999
F-14.399999999999991
tp147
a(F-8.0
F-14.399999999999991
tp148
a(F-5.5
F-14.399999999999991
tp149
a(F-5.449999999999989
F-14.299999999999997
tp150
a(F-14.5
F-14.25
tp151
a(F-17.049999999999997
F-14.199999999999989
tp152
a(F-7.949999999999989
F-14.149999999999991
tp153
a(F-14.5
F-14.099999999999994
tp154
a(F-5.5
F-14.099999999999994
tp155
a(F-7.8999999999999915
F-14.049999999999997
tp156
a(F-7.949999999999989
F-14.0
tp157
a(F-14.5
F-13.949999999999989
tp158
a(F-17.0
F-13.899999999999991
tp159
a(F-14.449999999999989
F-13.849999999999994
tp160
a(F-16.89999999999999
F-13.799999999999997
tp161
a(F-5.5
F-13.799999999999997
tp162
a(F-8.0
F-13.75
tp163
a(F-16.89999999999999
F-13.649999999999991
tp164
a(F-5.549999999999997
F-13.649999999999991
tp165
a(F-17.049999999999997
F-13.599999999999994
tp166
a(F-7.949999999999989
F-13.549999999999997
tp167
a(F-14.5
F-13.5
tp168
a(F-17.049999999999997
F-13.449999999999989
tp169
a(F-17.0
F-13.399999999999991
tp170
a(F-14.5
F-13.349999999999994
tp171
a(F-5.449999999999989
F-13.349999999999994
tp172
a(F-17.0
F-13.25
tp173
a(F-16.89999999999999
F-13.199999999999989
tp174
a(F-5.549999999999997
F-13.199999999999989
tp175
a(F-8.0
F-13.099999999999994
tp176
a(F-16.89999999999999
F-13.049999999999997
tp177
a(F-5.5
F-13.049999999999997
tp178
a(F-17.099999999999994
F-12.949999999999989
tp179
a(F-16.89999999999999
F-12.899999999999991
tp180
a(F-7.8999999999999915
F-12.899999999999991
tp181
a(F-17.0
F-12.799999999999997
tp182
a(F-7.949999999999989
F-12.799999999999997
tp183
a(F-14.5
F-12.75
tp184
a(F-5.5
F-12.699999999999989
tp185
a(F-7.8999999999999915
F-12.649999999999991
tp186
a(F-14.5
F-12.599999999999994
tp187
a(F-16.94999999999999
F-12.5
tp188
a(F-17.0
F-12.449999999999989
tp189
a(F-5.449999999999989
F-12.449999999999989
tp190
a(F-14.549999999999997
F-12.399999999999991
tp191
a(F-7.949999999999989
F-12.349999999999994
tp192
a(F-14.5
F-12.299999999999997
tp193
a(F-17.0
F-12.199999999999989
tp194
a(F-5.299999999999997
F-12.199999999999989
tp195
a(F-7.849999999999994
F-12.149999999999991
tp196
a(F-14.449999999999989
F-12.099999999999994
tp197
a(F-7.799999999999997
F-12.049999999999997
tp198
a(F-7.849999999999994
F-12.0
tp199
a(F-17.0
F-11.949999999999989
tp200
a(F-14.549999999999997
F-11.949999999999989
tp201
a(F-5.0
F-11.899999999999991
tp202
a(F-4.949999999999989
F-11.849999999999994
tp203
a(F5.75
F-11.849999999999994
tp204
a(F-7.75
F-11.799999999999997
tp205
a(F-14.449999999999989
F-11.75
tp206
a(F-17.0
F-11.699999999999989
tp207
a(F-4.699999999999989
F-11.699999999999989
tp208
a(F-7.6499999999999915
F-11.649999999999991
tp209
a(F-4.099999999999994
F-11.649999999999991
tp210
a(F-3.5
F-11.649999999999991
tp211
a(F-2.5
F-11.649999999999991
tp212
a(F0.4000000000000057
F-11.649999999999991
tp213
a(F3.6000000000000085
F-11.649999999999991
tp214
a(F-14.549999999999997
F-11.599999999999994
tp215
a(F-3.3999999999999915
F-11.599999999999994
tp216
a(F-3.0999999999999943
F-11.599999999999994
tp217
a(F-2.6999999999999886
F-11.599999999999994
tp218
a(F-2.25
F-11.599999999999994
tp219
a(F-2.0999999999999943
F-11.599999999999994
tp220
a(F-1.8499999999999943
F-11.599999999999994
tp221
a(F-1.5499999999999972
F-11.599999999999994
tp222
a(F-1.3999999999999915
F-11.599999999999994
tp223
a(F-1.1499999999999915
F-11.599999999999994
tp224
a(F-0.7999999999999972
F-11.599999999999994
tp225
a(F1.1000000000000085
F-11.599999999999994
tp226
a(F4.3500000000000085
F-11.599999999999994
tp227
a(F-14.5
F-11.549999999999997
tp228
a(F-2.049999999999997
F-11.549999999999997
tp229
a(F-1.0999999999999943
F-11.549999999999997
tp230
a(F-0.75
F-11.549999999999997
tp231
a(F-0.44999999999998863
F-11.549999999999997
tp232
a(F0.0
F-11.549999999999997
tp233
a(F0.30000000000001137
F-11.549999999999997
tp234
a(F0.7000000000000028
F-11.549999999999997
tp235
a(F1.25
F-11.549999999999997
tp236
a(F1.75
F-11.549999999999997
tp237
a(F1.9500000000000028
F-11.549999999999997
tp238
a(F2.3000000000000114
F-11.549999999999997
tp239
a(F2.8500000000000085
F-11.549999999999997
tp240
a(F3.25
F-11.549999999999997
tp241
a(F3.8500000000000085
F-11.549999999999997
tp242
a(F4.450000000000003
F-11.549999999999997
tp243
a(F-17.0
F-11.5
tp244
a(F2.8000000000000114
F-11.5
tp245
a(F3.700000000000003
F-11.5
tp246
a(F4.0
F-11.5
tp247
a(F4.950000000000003
F-11.5
tp248
a(F5.800000000000011
F-11.5
tp249
a(F-7.599999999999994
F-11.449999999999989
tp250
a(F5.25
F-11.449999999999989
tp251
a(F-14.5
F-11.399999999999991
tp252
a(F6.5
F-11.399999999999991
tp253
a(F-7.6499999999999915
F-11.349999999999994
tp254
a(F5.6000000000000085
F-11.349999999999994
tp255
a(F-16.94999999999999
F-11.299999999999997
tp256
a(F-14.5
F-11.25
tp257
a(F5.900000000000006
F-11.25
tp258
a(F-17.049999999999997
F-11.199999999999989
tp259
a(F-17.0
F-11.149999999999991
tp260
a(F6.3500000000000085
F-11.149999999999991
tp261
a(F-16.89999999999999
F-11.099999999999994
tp262
a(F-7.449999999999989
F-11.099999999999994
tp263
a(F6.450000000000003
F-11.099999999999994
tp264
a(F6.5
F-11.0
tp265
a(F-16.89999999999999
F-10.949999999999989
tp266
a(F-7.349999999999994
F-10.949999999999989
tp267
a(F6.700000000000003
F-10.949999999999989
tp268
a(F6.75
F-10.899999999999991
tp269
a(F6.8500000000000085
F-10.849999999999994
tp270
a(F-16.89999999999999
F-10.799999999999997
tp271
a(F6.900000000000006
F-10.75
tp272
a(F-14.199999999999989
F-10.699999999999989
tp273
a(F7.050000000000011
F-10.699999999999989
tp274
a(F-17.0
F-10.599999999999994
tp275
a(F-14.049999999999997
F-10.599999999999994
tp276
a(F-16.94999999999999
F-10.549999999999997
tp277
a(F-7.1499999999999915
F-10.549999999999997
tp278
a(F7.200000000000003
F-10.549999999999997
tp279
a(F-14.0
F-10.5
tp280
a(F-16.849999999999994
F-10.449999999999989
tp281
a(F-7.0
F-10.449999999999989
tp282
a(F-16.799999999999997
F-10.399999999999991
tp283
a(F7.3500000000000085
F-10.399999999999991
tp284
a(F7.400000000000006
F-10.349999999999994
tp285
a(F-6.8999999999999915
F-10.299999999999997
tp286
a(F-16.849999999999994
F-10.25
tp287
a(F-6.949999999999989
F-10.25
tp288
a(F-13.75
F-10.199999999999989
tp289
a(F7.450000000000003
F-10.199999999999989
tp290
a(F-13.649999999999991
F-10.149999999999991
tp291
a(F7.6000000000000085
F-10.149999999999991
tp292
a(F-6.6499999999999915
F-10.099999999999994
tp293
a(F-13.549999999999997
F-10.049999999999997
tp294
a(F-16.64999999999999
F-10.0
tp295
a(F-6.5
F-10.0
tp296
a(F-16.599999999999994
F-9.949999999999989
tp297
a(F-13.549999999999997
F-9.899999999999991
tp298
a(F-13.399999999999991
F-9.899999999999991
tp299
a(F-6.3999999999999915
F-9.899999999999991
tp300
a(F7.75
F-9.899999999999991
tp301
a(F7.700000000000003
F-9.849999999999994
tp302
a(F-16.599999999999994
F-9.799999999999997
tp303
a(F-6.1499999999999915
F-9.799999999999997
tp304
a(F-13.299999999999997
F-9.75
tp305
a(F7.800000000000011
F-9.75
tp306
a(F-6.199999999999989
F-9.699999999999989
tp307
a(F-6.25
F-9.649999999999991
tp308
a(F7.900000000000006
F-9.649999999999991
tp309
a(F-13.149999999999991
F-9.599999999999994
tp310
a(F-5.849999999999994
F-9.599999999999994
tp311
a(F-6.0
F-9.549999999999997
tp312
a(F8.050000000000011
F-9.549999999999997
tp313
a(F-13.099999999999994
F-9.5
tp314
a(F-5.599999999999994
F-9.5
tp315
a(F-5.3999999999999915
F-9.449999999999989
tp316
a(F-13.049999999999997
F-9.399999999999991
tp317
a(F-5.6499999999999915
F-9.399999999999991
tp318
a(F8.050000000000011
F-9.399999999999991
tp319
a(F-5.449999999999989
F-9.349999999999994
tp320
a(F-12.849999999999994
F-9.299999999999997
tp321
a(F-5.099999999999994
F-9.299999999999997
tp322
a(F8.100000000000009
F-9.299999999999997
tp323
a(F-4.949999999999989
F-9.25
tp324
a(F-4.549999999999997
F-9.25
tp325
a(F-4.299999999999997
F-9.25
tp326
a(F-4.0
F-9.25
tp327
a(F8.0
F-9.25
tp328
a(F-16.14999999999999
F-9.199999999999989
tp329
a(F-5.0
F-9.199999999999989
tp330
a(F-4.049999999999997
F-9.199999999999989
tp331
a(F-3.6499999999999915
F-9.199999999999989
tp332
a(F-3.299999999999997
F-9.199999999999989
tp333
a(F-2.8499999999999943
F-9.199999999999989
tp334
a(F-2.3499999999999943
F-9.199999999999989
tp335
a(F-1.6999999999999886
F-9.199999999999989
tp336
a(F-0.5
F-9.199999999999989
tp337
a(F-5.3999999999999915
F-9.149999999999991
tp338
a(F-3.9499999999999886
F-9.149999999999991
tp339
a(F-3.25
F-9.149999999999991
tp340
a(F-2.549999999999997
F-9.149999999999991
tp341
a(F-2.1999999999999886
F-9.149999999999991
tp342
a(F-1.5
F-9.149999999999991
tp343
a(F-1.25
F-9.149999999999991
tp344
a(F-0.7999999999999972
F-9.149999999999991
tp345
a(F-0.09999999999999432
F-9.149999999999991
tp346
a(F0.3500000000000085
F-9.149999999999991
tp347
a(F0.75
F-9.149999999999991
tp348
a(F0.9500000000000028
F-9.149999999999991
tp349
a(F1.3000000000000114
F-9.149999999999991
tp350
a(F1.5500000000000114
F-9.149999999999991
tp351
a(F2.4000000000000057
F-9.149999999999991
tp352
a(F2.6500000000000057
F-9.149999999999991
tp353
a(F3.3000000000000114
F-9.149999999999991
tp354
a(F3.6500000000000057
F-9.149999999999991
tp355
a(F4.300000000000011
F-9.149999999999991
tp356
a(F8.100000000000009
F-9.149999999999991
tp357
a(F-4.699999999999989
F-9.099999999999994
tp358
a(F-4.25
F-9.099999999999994
tp359
a(F-3.0999999999999943
F-9.099999999999994
tp360
a(F-2.6999999999999886
F-9.099999999999994
tp361
a(F-1.6499999999999915
F-9.099999999999994
tp362
a(F-1.1499999999999915
F-9.099999999999994
tp363
a(F-0.6499999999999915
F-9.099999999999994
tp364
a(F-0.25
F-9.099999999999994
tp365
a(F0.4000000000000057
F-9.099999999999994
tp366
a(F1.4500000000000028
F-9.099999999999994
tp367
a(F2.0500000000000114
F-9.099999999999994
tp368
a(F2.25
F-9.099999999999994
tp369
a(F2.5
F-9.099999999999994
tp370
a(F2.9000000000000057
F-9.099999999999994
tp371
a(F3.200000000000003
F-9.099999999999994
tp372
a(F3.5500000000000114
F-9.099999999999994
tp373
a(F3.8500000000000085
F-9.099999999999994
tp374
a(F4.150000000000006
F-9.099999999999994
tp375
a(F4.75
F-9.099999999999994
tp376
a(F-16.049999999999997
F-9.049999999999997
tp377
a(F-4.449999999999989
F-9.049999999999997
tp378
a(F-2.75
F-9.049999999999997
tp379
a(F-1.6999999999999886
F-9.049999999999997
tp380
a(F-0.44999999999998863
F-9.049999999999997
tp381
a(F0.30000000000001137
F-9.049999999999997
tp382
a(F1.0500000000000114
F-9.049999999999997
tp383
a(F1.7000000000000028
F-9.049999999999997
tp384
a(F1.9500000000000028
F-9.049999999999997
tp385
a(F4.450000000000003
F-9.049999999999997
tp386
a(F-15.949999999999989
F-9.0
tp387
a(F-3.8499999999999943
F-9.0
tp388
a(F-0.09999999999999432
F-9.0
tp389
a(F5.150000000000006
F-9.0
tp390
a(F5.050000000000011
F-8.949999999999989
tp391
a(F-12.5
F-8.899999999999991
tp392
a(F5.300000000000011
F-8.899999999999991
tp393
a(F8.300000000000011
F-8.849999999999994
tp394
a(F-12.299999999999997
F-8.799999999999997
tp395
a(F-15.799999999999997
F-8.75
tp396
a(F-12.199999999999989
F-8.699999999999989
tp397
a(F-15.75
F-8.649999999999991
tp398
a(F-12.349999999999994
F-8.649999999999991
tp399
a(F8.25
F-8.649999999999991
tp400
a(F5.650000000000006
F-8.599999999999994
tp401
a(F8.300000000000011
F-8.549999999999997
tp402
a(F-12.0
F-8.5
tp403
a(F8.350000000000009
F-8.5
tp404
a(F5.75
F-8.449999999999989
tp405
a(F-12.0
F-8.349999999999994
tp406
a(F5.800000000000011
F-8.349999999999994
tp407
a(F8.25
F-8.299999999999997
tp408
a(F8.300000000000011
F-8.25
tp409
a(F-15.149999999999991
F-8.149999999999991
tp410
a(F5.8500000000000085
F-8.149999999999991
tp411
a(F-15.049999999999997
F-8.099999999999994
tp412
a(F-15.199999999999989
F-8.049999999999997
tp413
a(F-11.549999999999997
F-8.0
tp414
a(F5.900000000000006
F-8.0
tp415
a(F8.300000000000011
F-7.949999999999989
tp416
a(F-14.899999999999991
F-7.849999999999994
tp417
a(F-11.399999999999991
F-7.849999999999994
tp418
a(F5.950000000000003
F-7.849999999999994
tp419
a(F-11.299999999999997
F-7.799999999999997
tp420
a(F8.400000000000006
F-7.799999999999997
tp421
a(F-11.199999999999989
F-7.699999999999989
tp422
a(F-11.299999999999997
F-7.6499999999999915
tp423
a(F5.950000000000003
F-7.6499999999999915
tp424
a(F8.400000000000006
F-7.599999999999994
tp425
a(F-11.149999999999991
F-7.549999999999997
tp426
a(F-11.099999999999994
F-7.5
tp427
a(F-11.049999999999997
F-7.449999999999989
tp428
a(F8.400000000000006
F-7.449999999999989
tp429
a(F-11.0
F-7.3999999999999915
tp430
a(F-14.349999999999994
F-7.349999999999994
tp431
a(F5.8500000000000085
F-7.349999999999994
tp432
a(F-10.849999999999994
F-7.299999999999997
tp433
a(F-10.799999999999997
F-7.25
tp434
a(F-14.199999999999989
F-7.199999999999989
tp435
a(F5.900000000000006
F-7.1499999999999915
tp436
a(F-14.099999999999994
F-7.099999999999994
tp437
a(F8.350000000000009
F-7.099999999999994
tp438
a(F8.300000000000011
F-7.049999999999997
tp439
a(F-10.549999999999997
F-7.0
tp440
a(F8.450000000000003
F-7.0
tp441
a(F8.350000000000009
F-6.949999999999989
tp442
a(F-13.849999999999994
F-6.849999999999994
tp443
a(F-10.5
F-6.849999999999994
tp444
a(F-10.449999999999989
F-6.799999999999997
tp445
a(F5.950000000000003
F-6.799999999999997
tp446
a(F-10.349999999999994
F-6.75
tp447
a(F8.300000000000011
F-6.699999999999989
tp448
a(F-10.399999999999991
F-6.6499999999999915
tp449
a(F8.450000000000003
F-6.6499999999999915
tp450
a(F8.400000000000006
F-6.599999999999994
tp451
a(F8.300000000000011
F-6.549999999999997
tp452
a(F5.900000000000006
F-6.5
tp453
a(F-10.25
F-6.449999999999989
tp454
a(F-13.399999999999991
F-6.3999999999999915
tp455
a(F-13.299999999999997
F-6.349999999999994
tp456
a(F5.900000000000006
F-6.349999999999994
tp457
a(F8.350000000000009
F-6.349999999999994
tp458
a(F8.400000000000006
F-6.25
tp459
a(F-10.199999999999989
F-6.199999999999989
tp460
a(F-10.049999999999997
F-6.199999999999989
tp461
a(F8.350000000000009
F-6.199999999999989
tp462
a(F8.300000000000011
F-6.1499999999999915
tp463
a(F-10.149999999999991
F-6.049999999999997
tp464
a(F5.900000000000006
F-6.049999999999997
tp465
a(F8.400000000000006
F-6.0
tp466
a(F-13.0
F-5.8999999999999915
tp467
a(F-10.049999999999997
F-5.8999999999999915
tp468
a(F5.900000000000006
F-5.8999999999999915
tp469
a(F-12.849999999999994
F-5.849999999999994
tp470
a(F8.450000000000003
F-5.799999999999997
tp471
a(F-10.0
F-5.75
tp472
a(F8.300000000000011
F-5.75
tp473
a(F-12.699999999999989
F-5.699999999999989
tp474
a(F8.450000000000003
F-5.6499999999999915
tp475
a(F8.350000000000009
F-5.599999999999994
tp476
a(F-12.549999999999997
F-5.549999999999997
tp477
a(F5.900000000000006
F-5.549999999999997
tp478
a(F5.8500000000000085
F-5.5
tp479
a(F-12.449999999999989
F-5.449999999999989
tp480
a(F5.900000000000006
F-5.3999999999999915
tp481
a(F5.950000000000003
F-5.349999999999994
tp482
a(F8.350000000000009
F-5.299999999999997
tp483
a(F-9.949999999999989
F-5.199999999999989
tp484
a(F8.400000000000006
F-5.199999999999989
tp485
a(F-9.899999999999991
F-5.1499999999999915
tp486
a(F-12.399999999999991
F-5.099999999999994
tp487
a(F8.400000000000006
F-5.049999999999997
tp488
a(F-9.849999999999994
F-5.0
tp489
a(F-12.349999999999994
F-4.949999999999989
tp490
a(F-12.399999999999991
F-4.8999999999999915
tp491
a(F8.450000000000003
F-4.8999999999999915
tp492
a(F8.350000000000009
F-4.849999999999994
tp493
a(F-12.449999999999989
F-4.75
tp494
a(F5.800000000000011
F-4.75
tp495
a(F-10.0
F-4.699999999999989
tp496
a(F8.450000000000003
F-4.699999999999989
tp497
a(F5.900000000000006
F-4.599999999999994
tp498
a(F-12.399999999999991
F-4.549999999999997
tp499
a(F5.800000000000011
F-4.549999999999997
tp500
a(F-9.949999999999989
F-4.449999999999989
tp501
a(F8.450000000000003
F-4.449999999999989
tp502
a(F-9.899999999999991
F-4.3999999999999915
tp503
a(F-12.5
F-4.349999999999994
tp504
a(F-9.949999999999989
F-4.299999999999997
tp505
a(F-12.399999999999991
F-4.25
tp506
a(F5.800000000000011
F-4.25
tp507
a(F-12.349999999999994
F-4.1499999999999915
tp508
a(F5.950000000000003
F-4.1499999999999915
tp509
a(F-10.0
F-4.099999999999994
tp510
a(F5.8500000000000085
F-4.099999999999994
tp511
a(F-12.449999999999989
F-4.0
tp512
a(F5.950000000000003
F-4.0
tp513
a(F-12.349999999999994
F-3.9499999999999886
tp514
a(F5.75
F-3.9499999999999886
tp515
a(F-12.399999999999991
F-3.8999999999999915
tp516
a(F5.950000000000003
F-3.8499999999999943
tp517
a(F5.8500000000000085
F-3.799999999999997
tp518
a(F-12.399999999999991
F-3.75
tp519
a(F-9.949999999999989
F-3.6999999999999886
tp520
a(F-9.899999999999991
F-3.6499999999999915
tp521
a(F-12.399999999999991
F-3.5999999999999943
tp522
a(F-9.949999999999989
F-3.549999999999997
tp523
a(F-9.899999999999991
F-3.5
tp524
a(F8.450000000000003
F-3.5
tp525
a(F5.8500000000000085
F-3.4499999999999886
tp526
a(F-10.0
F-3.3499999999999943
tp527
a(F8.350000000000009
F-3.3499999999999943
tp528
a(F-12.349999999999994
F-3.25
tp529
a(F5.75
F-3.25
tp530
a(F8.450000000000003
F-3.25
tp531
a(F6.0
F-3.1999999999999886
tp532
a(F8.350000000000009
F-3.1499999999999915
tp533
a(F5.950000000000003
F-3.0999999999999943
tp534
a(F-9.899999999999991
F-3.049999999999997
tp535
a(F-9.949999999999989
F-2.9499999999999886
tp536
a(F6.0
F-2.9499999999999886
tp537
a(F-10.0
F-2.8999999999999915
tp538
a(F8.400000000000006
F-2.8999999999999915
tp539
a(F-9.949999999999989
F-2.799999999999997
tp540
a(F5.950000000000003
F-2.75
tp541
a(F-10.0
F-2.6999999999999886
tp542
a(F-9.949999999999989
F-2.6499999999999915
tp543
a(F-9.849999999999994
F-2.5999999999999943
tp544
a(F-12.399999999999991
F-2.549999999999997
tp545
a(F5.950000000000003
F-2.5
tp546
a(F8.400000000000006
F-2.4499999999999886
tp547
a(F5.8500000000000085
F-2.3499999999999943
tp548
a(F8.5
F-2.3499999999999943
tp549
a(F8.450000000000003
F-2.299999999999997
tp550
a(F-9.949999999999989
F-2.1999999999999886
tp551
a(F-9.899999999999991
F-2.1499999999999915
tp552
a(F-10.0
F-2.0999999999999943
tp553
a(F5.8500000000000085
F-2.049999999999997
tp554
a(F8.400000000000006
F-2.0
tp555
a(F-9.949999999999989
F-1.8999999999999915
tp556
a(F8.400000000000006
F-1.8499999999999943
tp557
a(F5.800000000000011
F-1.7999999999999972
tp558
a(F8.450000000000003
F-1.75
tp559
a(F5.900000000000006
F-1.6999999999999886
tp560
a(F-12.399999999999991
F-1.6499999999999915
tp561
a(F-10.0
F-1.5999999999999943
tp562
a(F-9.899999999999991
F-1.5499999999999972
tp563
a(F8.450000000000003
F-1.5499999999999972
tp564
a(F-10.0
F-1.4499999999999886
tp565
a(F5.950000000000003
F-1.4499999999999886
tp566
a(F8.400000000000006
F-1.3999999999999915
tp567
a(F-12.399999999999991
F-1.3499999999999943
tp568
a(F8.550000000000011
F-1.2999999999999972
tp569
a(F5.8500000000000085
F-1.25
tp570
a(F-12.399999999999991
F-1.1999999999999886
tp571
a(F8.450000000000003
F-1.1499999999999915
tp572
a(F-9.899999999999991
F-1.0999999999999943
tp573
a(F-12.399999999999991
F-1.0499999999999972
tp574
a(F8.450000000000003
F-1.0
tp575
a(F-9.849999999999994
F-0.9499999999999886
tp576
a(F-9.899999999999991
F-0.8999999999999915
tp577
a(F5.950000000000003
F-0.8499999999999943
tp578
a(F8.400000000000006
F-0.7999999999999972
tp579
a(F-9.899999999999991
F-0.6999999999999886
tp580
a(F5.900000000000006
F-0.6999999999999886
tp581
a(F6.0
F-0.6499999999999915
tp582
a(F-9.949999999999989
F-0.5999999999999943
tp583
a(F8.550000000000011
F-0.5999999999999943
tp584
a(F-10.0
F-0.5
tp585
a(F8.400000000000006
F-0.5
tp586
a(F-9.899999999999991
F-0.3999999999999915
tp587
a(F-10.0
F-0.3499999999999943
tp588
a(F8.400000000000006
F-0.3499999999999943
tp589
a(F4.700000000000003
F-0.29999999999999716
tp590
a(F-9.849999999999994
F-0.25
tp591
a(F8.400000000000006
F-0.19999999999998863
tp592
a(F-9.899999999999991
F-0.09999999999999432
tp593
a(F5.900000000000006
F-0.04999999999999716
tp594
a(F8.450000000000003
F0.0
tp595
a(F-9.899999999999991
F0.05000000000001137
tp596
a(F-9.949999999999989
F0.10000000000000853
tp597
a(F-12.549999999999997
F0.20000000000000284
tp598
a(F5.900000000000006
F0.20000000000000284
tp599
a(F-12.599999999999994
F0.25
tp600
a(F5.950000000000003
F0.25
tp601
a(F8.5
F0.30000000000001137
tp602
a(F5.900000000000006
F0.3500000000000085
tp603
a(F8.600000000000009
F0.3500000000000085
tp604
a(F5.950000000000003
F0.4000000000000057
tp605
a(F-12.949999999999989
F0.5
tp606
a(F-10.049999999999997
F0.5
tp607
a(F5.950000000000003
F0.5500000000000114
tp608
a(F-10.099999999999994
F0.6000000000000085
tp609
a(F-12.899999999999991
F0.6500000000000057
tp610
a(F-9.949999999999989
F0.6500000000000057
tp611
a(F-13.099999999999994
F0.7000000000000028
tp612
a(F6.050000000000011
F0.7000000000000028
tp613
a(F-10.099999999999994
F0.8000000000000114
tp614
a(F-13.149999999999991
F0.8500000000000085
tp615
a(F5.950000000000003
F0.8500000000000085
tp616
a(F-10.199999999999989
F0.9000000000000057
tp617
a(F8.450000000000003
F0.9500000000000028
tp618
a(F-10.149999999999991
F1.0
tp619
a(F-10.199999999999989
F1.0500000000000114
tp620
a(F-10.25
F1.1000000000000085
tp621
a(F-13.449999999999989
F1.1500000000000057
tp622
a(F5.950000000000003
F1.1500000000000057
tp623
a(F-13.5
F1.2000000000000028
tp624
a(F-13.799999999999997
F1.25
tp625
a(F-10.25
F1.25
tp626
a(F5.950000000000003
F1.3000000000000114
tp627
a(F-14.0
F1.4000000000000057
tp628
a(F6.0
F1.4000000000000057
tp629
a(F-13.649999999999991
F1.4500000000000028
tp630
a(F8.5
F1.4500000000000028
tp631
a(F-13.799999999999997
F1.5
tp632
a(F6.050000000000011
F1.5
tp633
a(F-13.949999999999989
F1.6000000000000085
tp634
a(F-14.0
F1.6500000000000057
tp635
a(F6.050000000000011
F1.6500000000000057
tp636
a(F-10.549999999999997
F1.7000000000000028
tp637
a(F-14.199999999999989
F1.75
tp638
a(F6.0
F1.75
tp639
a(F-10.649999999999991
F1.8000000000000114
tp640
a(F-10.599999999999994
F1.8500000000000085
tp641
a(F8.450000000000003
F1.8500000000000085
tp642
a(F-14.299999999999997
F1.9500000000000028
tp643
a(F-14.25
F2.0
tp644
a(F6.050000000000011
F2.0
tp645
a(F-14.349999999999994
F2.0500000000000114
tp646
a(F-10.899999999999991
F2.1000000000000085
tp647
a(F-14.649999999999991
F2.1500000000000057
tp648
a(F-10.949999999999989
F2.1500000000000057
tp649
a(F6.0
F2.200000000000003
tp650
a(F-14.799999999999997
F2.25
tp651
a(F-11.049999999999997
F2.25
tp652
a(F-14.449999999999989
F2.3000000000000114
tp653
a(F8.450000000000003
F2.3000000000000114
tp654
a(F-14.649999999999991
F2.4000000000000057
tp655
a(F-11.149999999999991
F2.4000000000000057
tp656
a(F8.5
F2.4000000000000057
tp657
a(F-14.849999999999994
F2.5
tp658
a(F6.050000000000011
F2.5
tp659
a(F5.950000000000003
F2.5500000000000114
tp660
a(F-14.899999999999991
F2.6000000000000085
tp661
a(F-11.299999999999997
F2.6000000000000085
tp662
a(F-15.049999999999997
F2.6500000000000057
tp663
a(F-15.099999999999994
F2.700000000000003
tp664
a(F-11.349999999999994
F2.700000000000003
tp665
a(F-11.599999999999994
F2.75
tp666
a(F8.450000000000003
F2.75
tp667
a(F6.050000000000011
F2.8000000000000114
tp668
a(F-11.699999999999989
F2.8500000000000085
tp669
a(F-15.349999999999994
F2.9000000000000057
tp670
a(F-11.649999999999991
F2.9000000000000057
tp671
a(F-15.399999999999991
F2.950000000000003
tp672
a(F-11.75
F2.950000000000003
tp673
a(F6.1000000000000085
F2.950000000000003
tp674
a(F8.5
F3.0
tp675
a(F-15.25
F3.1000000000000085
tp676
a(F6.0
F3.1000000000000085
tp677
a(F-11.949999999999989
F3.1500000000000057
tp678
a(F-15.549999999999997
F3.200000000000003
tp679
a(F-12.049999999999997
F3.200000000000003
tp680
a(F-15.599999999999994
F3.25
tp681
a(F8.600000000000009
F3.25
tp682
a(F-12.0
F3.3000000000000114
tp683
a(F-12.049999999999997
F3.3500000000000085
tp684
a(F-15.699999999999989
F3.4000000000000057
tp685
a(F-15.599999999999994
F3.450000000000003
tp686
a(F-15.799999999999997
F3.5
tp687
a(F-15.849999999999994
F3.5500000000000114
tp688
a(F-15.949999999999989
F3.6000000000000085
tp689
a(F-12.399999999999991
F3.6000000000000085
tp690
a(F-12.25
F3.6000000000000085
tp691
a(F-4.0
F3.6500000000000057
tp692
a(F-15.849999999999994
F3.700000000000003
tp693
a(F-5.1499999999999915
F3.700000000000003
tp694
a(F-4.5
F3.700000000000003
tp695
a(F-16.049999999999997
F3.75
tp696
a(F-5.099999999999994
F3.75
tp697
a(F-4.25
F3.75
tp698
a(F-3.799999999999997
F3.75
tp699
a(F-15.949999999999989
F3.8000000000000114
tp700
a(F-5.199999999999989
F3.8000000000000114
tp701
a(F-4.849999999999994
F3.8000000000000114
tp702
a(F-4.449999999999989
F3.8000000000000114
tp703
a(F-4.0
F3.8000000000000114
tp704
a(F-3.75
F3.8000000000000114
tp705
a(F6.0
F3.8000000000000114
tp706
a(F-16.099999999999994
F3.8500000000000085
tp707
a(F-5.6499999999999915
F3.8500000000000085
tp708
a(F-3.6999999999999886
F3.8500000000000085
tp709
a(F-3.3499999999999943
F3.8500000000000085
tp710
a(F8.650000000000006
F3.8500000000000085
tp711
a(F-5.8999999999999915
F3.9000000000000057
tp712
a(F-5.449999999999989
F3.9000000000000057
tp713
a(F-3.299999999999997
F3.9000000000000057
tp714
a(F-6.1499999999999915
F3.950000000000003
tp715
a(F-5.75
F3.950000000000003
tp716
a(F6.1000000000000085
F3.950000000000003
tp717
a(F-16.299999999999997
F4.0
tp718
a(F-12.75
F4.0
tp719
a(F-3.1499999999999915
F4.0
tp720
a(F8.600000000000009
F4.0
tp721
a(F-6.099999999999994
F4.050000000000011
tp722
a(F-2.799999999999997
F4.050000000000011
tp723
a(F-16.25
F4.1000000000000085
tp724
a(F-6.449999999999989
F4.1000000000000085
tp725
a(F-2.75
F4.1000000000000085
tp726
a(F-2.5
F4.1000000000000085
tp727
a(F-16.44999999999999
F4.150000000000006
tp728
a(F-2.5999999999999943
F4.150000000000006
tp729
a(F6.050000000000011
F4.150000000000006
tp730
a(F-12.949999999999989
F4.200000000000003
tp731
a(F-2.3999999999999915
F4.200000000000003
tp732
a(F-16.39999999999999
F4.25
tp733
a(F-6.449999999999989
F4.25
tp734
a(F8.5
F4.25
tp735
a(F-13.099999999999994
F4.300000000000011
tp736
a(F-6.699999999999989
F4.300000000000011
tp737
a(F-2.1499999999999915
F4.300000000000011
tp738
a(F-6.75
F4.3500000000000085
tp739
a(F8.600000000000009
F4.3500000000000085
tp740
a(F-13.149999999999991
F4.400000000000006
tp741
a(F-6.8999999999999915
F4.400000000000006
tp742
a(F6.1000000000000085
F4.400000000000006
tp743
a(F-13.099999999999994
F4.450000000000003
tp744
a(F-16.599999999999994
F4.5
tp745
a(F-1.8499999999999943
F4.5
tp746
a(F-7.25
F4.550000000000011
tp747
a(F-1.6999999999999886
F4.550000000000011
tp748
a(F8.550000000000011
F4.550000000000011
tp749
a(F-13.549999999999997
F4.6000000000000085
tp750
a(F-1.5499999999999972
F4.6000000000000085
tp751
a(F-13.449999999999989
F4.650000000000006
tp752
a(F-7.3999999999999915
F4.650000000000006
tp753
a(F-16.69999999999999
F4.700000000000003
tp754
a(F-7.25
F4.700000000000003
tp755
a(F5.900000000000006
F4.700000000000003
tp756
a(F-16.64999999999999
F4.75
tp757
a(F-1.5999999999999943
F4.75
tp758
a(F-13.599999999999994
F4.800000000000011
tp759
a(F5.8500000000000085
F4.800000000000011
tp760
a(F-13.549999999999997
F4.8500000000000085
tp761
a(F-1.3999999999999915
F4.8500000000000085
tp762
a(F5.800000000000011
F4.8500000000000085
tp763
a(F-7.699999999999989
F4.900000000000006
tp764
a(F9.0
F4.900000000000006
tp765
a(F-13.75
F4.950000000000003
tp766
a(F5.550000000000011
F4.950000000000003
tp767
a(F-7.75
F5.0
tp768
a(F-1.1499999999999915
F5.0
tp769
a(F9.150000000000006
F5.0
tp770
a(F-7.799999999999997
F5.050000000000011
tp771
a(F9.100000000000009
F5.050000000000011
tp772
a(F-13.75
F5.1000000000000085
tp773
a(F5.5
F5.1000000000000085
tp774
a(F-16.69999999999999
F5.150000000000006
tp775
a(F5.3500000000000085
F5.150000000000006
tp776
a(F-8.0
F5.200000000000003
tp777
a(F9.300000000000011
F5.200000000000003
tp778
a(F-0.8999999999999915
F5.25
tp779
a(F5.25
F5.25
tp780
a(F-16.75
F5.300000000000011
tp781
a(F5.3500000000000085
F5.300000000000011
tp782
a(F-8.199999999999989
F5.3500000000000085
tp783
a(F-8.0
F5.3500000000000085
tp784
a(F-0.7999999999999972
F5.400000000000006
tp785
a(F-16.799999999999997
F5.450000000000003
tp786
a(F-8.099999999999994
F5.450000000000003
tp787
a(F5.150000000000006
F5.450000000000003
tp788
a(F-16.849999999999994
F5.5
tp789
a(F-0.6999999999999886
F5.5
tp790
a(F-14.25
F5.550000000000011
tp791
a(F-0.6499999999999915
F5.550000000000011
tp792
a(F-8.299999999999997
F5.6000000000000085
tp793
a(F-0.5499999999999972
F5.6000000000000085
tp794
a(F-16.849999999999994
F5.650000000000006
tp795
a(F5.200000000000003
F5.650000000000006
tp796
a(F-8.549999999999997
F5.700000000000003
tp797
a(F9.600000000000009
F5.700000000000003
tp798
a(F-14.399999999999991
F5.75
tp799
a(F5.050000000000011
F5.75
tp800
a(F-0.44999999999998863
F5.800000000000011
tp801
a(F5.0
F5.8500000000000085
tp802
a(F7.200000000000003
F5.8500000000000085
tp803
a(F7.550000000000011
F5.8500000000000085
tp804
a(F-14.449999999999989
F5.900000000000006
tp805
a(F-8.449999999999989
F5.900000000000006
tp806
a(F-0.29999999999999716
F5.900000000000006
tp807
a(F7.5
F5.900000000000006
tp808
a(F7.25
F5.950000000000003
tp809
a(F-16.849999999999994
F6.0
tp810
a(F7.75
F6.0
tp811
a(F-14.449999999999989
F6.050000000000011
tp812
a(F-0.29999999999999716
F6.050000000000011
tp813
a(F6.8500000000000085
F6.050000000000011
tp814
a(F-17.049999999999997
F6.1000000000000085
tp815
a(F-0.3499999999999943
F6.1000000000000085
tp816
a(F6.900000000000006
F6.1000000000000085
tp817
a(F9.650000000000006
F6.1000000000000085
tp818
a(F-14.5
F6.150000000000006
tp819
a(F-8.699999999999989
F6.150000000000006
tp820
a(F-16.89999999999999
F6.200000000000003
tp821
a(F-8.75
F6.200000000000003
tp822
a(F-4.599999999999994
F6.200000000000003
tp823
a(F-4.299999999999997
F6.200000000000003
tp824
a(F-0.19999999999998863
F6.200000000000003
tp825
a(F9.700000000000003
F6.200000000000003
tp826
a(F-5.1499999999999915
F6.25
tp827
a(F-4.8999999999999915
F6.25
tp828
a(F-3.8499999999999943
F6.25
tp829
a(F-16.849999999999994
F6.300000000000011
tp830
a(F-3.75
F6.300000000000011
tp831
a(F4.900000000000006
F6.300000000000011
tp832
a(F6.75
F6.300000000000011
tp833
a(F-14.449999999999989
F6.3500000000000085
tp834
a(F-5.199999999999989
F6.3500000000000085
tp835
a(F9.700000000000003
F6.3500000000000085
tp836
a(F-8.899999999999991
F6.400000000000006
tp837
a(F-5.349999999999994
F6.400000000000006
tp838
a(F-0.09999999999999432
F6.400000000000006
tp839
a(F-3.3499999999999943
F6.450000000000003
tp840
a(F0.0
F6.450000000000003
tp841
a(F-14.449999999999989
F6.5
tp842
a(F-5.549999999999997
F6.5
tp843
a(F4.8500000000000085
F6.5
tp844
a(F9.75
F6.5
tp845
a(F-5.799999999999997
F6.550000000000011
tp846
a(F-9.049999999999997
F6.6000000000000085
tp847
a(F6.550000000000011
F6.6000000000000085
tp848
a(F-16.849999999999994
F6.650000000000006
tp849
a(F-8.949999999999989
F6.650000000000006
tp850
a(F-5.8999999999999915
F6.650000000000006
tp851
a(F-3.0
F6.650000000000006
tp852
a(F4.950000000000003
F6.650000000000006
tp853
a(F-6.0
F6.700000000000003
tp854
a(F-9.0
F6.75
tp855
a(F0.10000000000000853
F6.75
tp856
a(F-14.449999999999989
F6.800000000000011
tp857
a(F4.950000000000003
F6.800000000000011
tp858
a(F9.75
F6.800000000000011
tp859
a(F9.700000000000003
F6.8500000000000085
tp860
a(F-9.0
F6.900000000000006
tp861
a(F8.050000000000011
F6.900000000000006
tp862
a(F-14.399999999999991
F6.950000000000003
tp863
a(F-2.6499999999999915
F6.950000000000003
tp864
a(F9.75
F6.950000000000003
tp865
a(F0.20000000000000284
F7.0
tp866
a(F9.700000000000003
F7.0
tp867
a(F-2.5999999999999943
F7.050000000000011
tp868
a(F4.950000000000003
F7.050000000000011
tp869
a(F-17.0
F7.1000000000000085
tp870
a(F-6.3999999999999915
F7.1000000000000085
tp871
a(F-9.149999999999991
F7.150000000000006
tp872
a(F-2.5
F7.150000000000006
tp873
a(F9.700000000000003
F7.150000000000006
tp874
a(F-2.4499999999999886
F7.200000000000003
tp875
a(F5.050000000000011
F7.200000000000003
tp876
a(F-16.849999999999994
F7.25
tp877
a(F-6.5
F7.25
tp878
a(F6.650000000000006
F7.25
tp879
a(F-9.099999999999994
F7.300000000000011
tp880
a(F6.8500000000000085
F7.300000000000011
tp881
a(F7.75
F7.300000000000011
tp882
a(F-16.94999999999999
F7.3500000000000085
tp883
a(F-9.149999999999991
F7.3500000000000085
tp884
a(F0.20000000000000284
F7.3500000000000085
tp885
a(F7.0
F7.3500000000000085
tp886
a(F-16.849999999999994
F7.400000000000006
tp887
a(F-2.299999999999997
F7.400000000000006
tp888
a(F6.900000000000006
F7.400000000000006
tp889
a(F9.600000000000009
F7.400000000000006
tp890
a(F0.3500000000000085
F7.450000000000003
tp891
a(F7.200000000000003
F7.450000000000003
tp892
a(F7.3500000000000085
F7.450000000000003
tp893
a(F-14.399999999999991
F7.5
tp894
a(F-6.599999999999994
F7.5
tp895
a(F-14.449999999999989
F7.550000000000011
tp896
a(F9.550000000000011
F7.550000000000011
tp897
a(F-6.6499999999999915
F7.6000000000000085
tp898
a(F-9.25
F7.650000000000006
tp899
a(F0.4000000000000057
F7.650000000000006
tp900
a(F9.5
F7.650000000000006
tp901
a(F-14.399999999999991
F7.700000000000003
tp902
a(F0.45000000000000284
F7.700000000000003
tp903
a(F-6.75
F7.75
tp904
a(F-9.199999999999989
F7.800000000000011
tp905
a(F9.5
F7.800000000000011
tp906
a(F-14.449999999999989
F7.8500000000000085
tp907
a(F-9.299999999999997
F7.8500000000000085
tp908
a(F5.300000000000011
F7.8500000000000085
tp909
a(F-9.25
F7.900000000000006
tp910
a(F-17.0
F7.950000000000003
tp911
a(F0.4000000000000057
F7.950000000000003
tp912
a(F-16.89999999999999
F8.0
tp913
a(F-14.399999999999991
F8.0
tp914
a(F9.300000000000011
F8.0
tp915
a(F-9.349999999999994
F8.050000000000011
tp916
a(F-2.0999999999999943
F8.050000000000011
tp917
a(F9.25
F8.050000000000011
tp918
a(F9.200000000000003
F8.100000000000009
tp919
a(F-14.399999999999991
F8.150000000000006
tp920
a(F9.300000000000011
F8.150000000000006
tp921
a(F-9.299999999999997
F8.200000000000003
tp922
a(F0.4000000000000057
F8.200000000000003
tp923
a(F5.5
F8.200000000000003
tp924
a(F9.350000000000009
F8.200000000000003
tp925
a(F-9.399999999999991
F8.25
tp926
a(F0.3500000000000085
F8.25
tp927
a(F-9.25
F8.300000000000011
tp928
a(F-16.849999999999994
F8.350000000000009
tp929
a(F-9.299999999999997
F8.350000000000009
tp930
a(F0.45000000000000284
F8.350000000000009
tp931
a(F5.700000000000003
F8.350000000000009
tp932
a(F0.4000000000000057
F8.400000000000006
tp933
a(F9.0
F8.400000000000006
tp934
a(F-9.399999999999991
F8.450000000000003
tp935
a(F-16.89999999999999
F8.5
tp936
a(F-14.399999999999991
F8.5
tp937
a(F-6.8999999999999915
F8.5
tp938
a(F0.5
F8.5
tp939
a(F-9.299999999999997
F8.550000000000011
tp940
a(F8.75
F8.550000000000011
tp941
a(F5.900000000000006
F8.600000000000009
tp942
a(F8.900000000000006
F8.600000000000009
tp943
a(F-16.849999999999994
F8.650000000000006
tp944
a(F-6.8999999999999915
F8.650000000000006
tp945
a(F5.950000000000003
F8.650000000000006
tp946
a(F-9.299999999999997
F8.700000000000003
tp947
a(F8.75
F8.700000000000003
tp948
a(F0.45000000000000284
F8.75
tp949
a(F8.550000000000011
F8.75
tp950
a(F-16.849999999999994
F8.800000000000011
tp951
a(F-9.399999999999991
F8.800000000000011
tp952
a(F0.5
F8.800000000000011
tp953
a(F-2.049999999999997
F8.850000000000009
tp954
a(F-6.949999999999989
F8.900000000000006
tp955
a(F8.550000000000011
F8.900000000000006
tp956
a(F-14.449999999999989
F8.950000000000003
tp957
a(F0.45000000000000284
F8.950000000000003
tp958
a(F-9.449999999999989
F9.0
tp959
a(F-1.9499999999999886
F9.0
tp960
a(F6.150000000000006
F9.050000000000011
tp961
a(F-14.449999999999989
F9.100000000000009
tp962
a(F-2.0
F9.100000000000009
tp963
a(F0.5
F9.100000000000009
tp964
a(F8.700000000000003
F9.100000000000009
tp965
a(F-6.8999999999999915
F9.150000000000006
tp966
a(F-2.049999999999997
F9.150000000000006
tp967
a(F-9.5
F9.200000000000003
tp968
a(F6.150000000000006
F9.200000000000003
tp969
a(F-14.449999999999989
F9.25
tp970
a(F-2.0
F9.25
tp971
a(F-9.349999999999994
F9.300000000000011
tp972
a(F6.200000000000003
F9.300000000000011
tp973
a(F-14.349999999999994
F9.350000000000009
tp974
a(F6.150000000000006
F9.350000000000009
tp975
a(F-9.399999999999991
F9.400000000000006
tp976
a(F-1.9499999999999886
F9.400000000000006
tp977
a(F-16.89999999999999
F9.450000000000003
tp978
a(F-14.399999999999991
F9.5
tp979
a(F0.5500000000000114
F9.5
tp980
a(F-16.799999999999997
F9.550000000000011
tp981
a(F-1.9499999999999886
F9.550000000000011
tp982
a(F8.550000000000011
F9.550000000000011
tp983
a(F-14.399999999999991
F9.650000000000006
tp984
a(F6.0
F9.650000000000006
tp985
a(F-16.799999999999997
F9.700000000000003
tp986
a(F0.45000000000000284
F9.700000000000003
tp987
a(F6.1000000000000085
F9.700000000000003
tp988
a(F8.650000000000006
F9.700000000000003
tp989
a(F-6.949999999999989
F9.75
tp990
a(F-7.0
F9.800000000000011
tp991
a(F8.700000000000003
F9.800000000000011
tp992
a(F-9.449999999999989
F9.850000000000009
tp993
a(F0.45000000000000284
F9.850000000000009
tp994
a(F-16.94999999999999
F9.900000000000006
tp995
a(F-9.5
F9.900000000000006
tp996
a(F0.5
F9.900000000000006
tp997
a(F-7.049999999999997
F9.950000000000003
tp998
a(F6.050000000000011
F9.950000000000003
tp999
a(F8.550000000000011
F9.950000000000003
tp1000
a(F-9.449999999999989
F10.0
tp1001
a(F6.150000000000006
F10.0
tp1002
a(F0.5500000000000114
F10.050000000000011
tp1003
a(F-7.049999999999997
F10.100000000000009
tp1004
a(F-16.89999999999999
F10.150000000000006
tp1005
a(F-9.449999999999989
F10.150000000000006
tp1006
a(F-1.9499999999999886
F10.150000000000006
tp1007
a(F6.150000000000006
F10.150000000000006
tp1008
a(F-6.949999999999989
F10.200000000000003
tp1009
a(F-7.049999999999997
F10.25
tp1010
a(F-9.5
F10.300000000000011
tp1011
a(F0.45000000000000284
F10.300000000000011
tp1012
a(F6.150000000000006
F10.300000000000011
tp1013
a(F-6.8999999999999915
F10.350000000000009
tp1014
a(F-14.399999999999991
F10.400000000000006
tp1015
a(F-16.849999999999994
F10.450000000000003
tp1016
a(F-1.9499999999999886
F10.450000000000003
tp1017
a(F0.5500000000000114
F10.450000000000003
tp1018
a(F8.600000000000009
F10.450000000000003
tp1019
a(F-9.5
F10.5
tp1020
a(F6.150000000000006
F10.5
tp1021
a(F-7.049999999999997
F10.550000000000011
tp1022
a(F-16.799999999999997
F10.600000000000009
tp1023
a(F0.45000000000000284
F10.600000000000009
tp1024
a(F8.600000000000009
F10.600000000000009
tp1025
a(F0.5500000000000114
F10.650000000000006
tp1026
a(F-14.25
F10.700000000000003
tp1027
a(F-7.049999999999997
F10.700000000000003
tp1028
a(F-16.799999999999997
F10.75
tp1029
a(F0.45000000000000284
F10.75
tp1030
a(F8.600000000000009
F10.75
tp1031
a(F-9.599999999999994
F10.850000000000009
tp1032
a(F6.1000000000000085
F10.850000000000009
tp1033
a(F-14.199999999999989
F10.900000000000006
tp1034
a(F-1.9499999999999886
F10.900000000000006
tp1035
a(F6.200000000000003
F10.900000000000006
tp1036
a(F-16.69999999999999
F10.950000000000003
tp1037
a(F-9.599999999999994
F11.0
tp1038
a(F-16.64999999999999
F11.050000000000011
tp1039
a(F-9.649999999999991
F11.050000000000011
tp1040
a(F0.45000000000000284
F11.050000000000011
tp1041
a(F8.600000000000009
F11.050000000000011
tp1042
a(F6.1000000000000085
F11.100000000000009
tp1043
a(F-16.64999999999999
F11.200000000000003
tp1044
a(F-9.75
F11.200000000000003
tp1045
a(F-1.9499999999999886
F11.200000000000003
tp1046
a(F6.200000000000003
F11.200000000000003
tp1047
a(F-7.199999999999989
F11.25
tp1048
a(F-7.049999999999997
F11.300000000000011
tp1049
a(F-16.599999999999994
F11.350000000000009
tp1050
a(F-9.799999999999997
F11.350000000000009
tp1051
a(F0.5
F11.350000000000009
tp1052
a(F6.200000000000003
F11.350000000000009
tp1053
a(F-7.199999999999989
F11.400000000000006
tp1054
a(F-13.949999999999989
F11.450000000000003
tp1055
a(F-16.64999999999999
F11.5
tp1056
a(F6.200000000000003
F11.5
tp1057
a(F-10.0
F11.550000000000011
tp1058
a(F-1.9499999999999886
F11.550000000000011
tp1059
a(F-16.549999999999997
F11.600000000000009
tp1060
a(F-1.8999999999999915
F11.600000000000009
tp1061
a(F-16.599999999999994
F11.650000000000006
tp1062
a(F0.5
F11.650000000000006
tp1063
a(F-10.099999999999994
F11.700000000000003
tp1064
a(F-2.0
F11.700000000000003
tp1065
a(F8.650000000000006
F11.700000000000003
tp1066
a(F-7.199999999999989
F11.75
tp1067
a(F-16.44999999999999
F11.800000000000011
tp1068
a(F-10.199999999999989
F11.800000000000011
tp1069
a(F0.6000000000000085
F11.800000000000011
tp1070
a(F8.600000000000009
F11.800000000000011
tp1071
a(F6.200000000000003
F11.850000000000009
tp1072
a(F-1.8999999999999915
F11.900000000000006
tp1073
a(F-10.349999999999994
F11.950000000000003
tp1074
a(F-16.5
F12.0
tp1075
a(F-1.9499999999999886
F12.0
tp1076
a(F6.150000000000006
F12.0
tp1077
a(F-13.399999999999991
F12.050000000000011
tp1078
a(F-7.449999999999989
F12.050000000000011
tp1079
a(F8.650000000000006
F12.050000000000011
tp1080
a(F-13.25
F12.100000000000009
tp1081
a(F0.5
F12.100000000000009
tp1082
a(F-13.199999999999989
F12.150000000000006
tp1083
a(F0.5500000000000114
F12.150000000000006
tp1084
a(F-16.25
F12.200000000000003
tp1085
a(F-7.3999999999999915
F12.200000000000003
tp1086
a(F6.200000000000003
F12.200000000000003
tp1087
a(F-7.599999999999994
F12.25
tp1088
a(F0.5
F12.25
tp1089
a(F8.600000000000009
F12.25
tp1090
a(F-12.799999999999997
F12.300000000000011
tp1091
a(F-16.25
F12.350000000000009
tp1092
a(F-7.5
F12.350000000000009
tp1093
a(F6.200000000000003
F12.350000000000009
tp1094
a(F-11.199999999999989
F12.400000000000006
tp1095
a(F0.5
F12.400000000000006
tp1096
a(F8.650000000000006
F12.400000000000006
tp1097
a(F-12.549999999999997
F12.450000000000003
tp1098
a(F-12.199999999999989
F12.450000000000003
tp1099
a(F6.25
F12.450000000000003
tp1100
a(F-12.099999999999994
F12.5
tp1101
a(F-11.5
F12.5
tp1102
a(F0.5500000000000114
F12.5
tp1103
a(F-11.899999999999991
F12.550000000000011
tp1104
a(F0.5
F12.550000000000011
tp1105
a(F-16.14999999999999
F12.600000000000009
tp1106
a(F-7.799999999999997
F12.600000000000009
tp1107
a(F-16.0
F12.650000000000006
tp1108
a(F6.200000000000003
F12.650000000000006
tp1109
a(F-7.849999999999994
F12.700000000000003
tp1110
a(F6.150000000000006
F12.700000000000003
tp1111
a(F-16.0
F12.800000000000011
tp1112
a(F-7.799999999999997
F12.800000000000011
tp1113
a(F0.5500000000000114
F12.800000000000011
tp1114
a(F-15.899999999999991
F12.850000000000009
tp1115
a(F-1.9499999999999886
F12.850000000000009
tp1116
a(F0.6000000000000085
F12.850000000000009
tp1117
a(F6.150000000000006
F12.900000000000006
tp1118
a(F-2.0
F12.950000000000003
tp1119
a(F6.200000000000003
F12.950000000000003
tp1120
a(F0.5
F13.0
tp1121
a(F8.650000000000006
F13.0
tp1122
a(F-8.049999999999997
F13.050000000000011
tp1123
a(F-1.8999999999999915
F13.100000000000009
tp1124
a(F0.6000000000000085
F13.100000000000009
tp1125
a(F-8.099999999999994
F13.150000000000006
tp1126
a(F6.25
F13.150000000000006
tp1127
a(F6.1000000000000085
F13.200000000000003
tp1128
a(F-1.8999999999999915
F13.25
tp1129
a(F-15.549999999999997
F13.300000000000011
tp1130
a(F-1.9499999999999886
F13.300000000000011
tp1131
a(F6.25
F13.300000000000011
tp1132
a(F-15.449999999999989
F13.350000000000009
tp1133
a(F0.5
F13.350000000000009
tp1134
a(F0.5500000000000114
F13.400000000000006
tp1135
a(F0.6500000000000057
F13.450000000000003
tp1136
a(F-15.449999999999989
F13.5
tp1137
a(F-8.449999999999989
F13.5
tp1138
a(F6.150000000000006
F13.5
tp1139
a(F-1.8999999999999915
F13.550000000000011
tp1140
a(F-15.299999999999997
F13.600000000000009
tp1141
a(F-8.5
F13.600000000000009
tp1142
a(F-15.25
F13.650000000000006
tp1143
a(F0.5
F13.650000000000006
tp1144
a(F-15.349999999999994
F13.700000000000003
tp1145
a(F0.6000000000000085
F13.700000000000003
tp1146
a(F-15.149999999999991
F13.75
tp1147
a(F-8.649999999999991
F13.75
tp1148
a(F8.650000000000006
F13.75
tp1149
a(F-8.699999999999989
F13.800000000000011
tp1150
a(F-8.849999999999994
F13.850000000000009
tp1151
a(F0.5500000000000114
F13.850000000000009
tp1152
a(F-14.849999999999994
F13.900000000000006
tp1153
a(F8.650000000000006
F13.900000000000006
tp1154
a(F-8.949999999999989
F13.950000000000003
tp1155
a(F0.6000000000000085
F13.950000000000003
tp1156
a(F-14.899999999999991
F14.0
tp1157
a(F-9.049999999999997
F14.0
tp1158
a(F-14.849999999999994
F14.050000000000011
tp1159
a(F-14.75
F14.100000000000009
tp1160
a(F-9.299999999999997
F14.100000000000009
tp1161
a(F6.200000000000003
F14.100000000000009
tp1162
a(F-14.599999999999994
F14.150000000000006
tp1163
a(F-9.099999999999994
F14.150000000000006
tp1164
a(F0.6000000000000085
F14.150000000000006
tp1165
a(F-14.299999999999997
F14.200000000000003
tp1166
a(F-9.25
F14.200000000000003
tp1167
a(F-14.349999999999994
F14.25
tp1168
a(F-1.9499999999999886
F14.25
tp1169
a(F6.200000000000003
F14.25
tp1170
a(F-14.399999999999991
F14.300000000000011
tp1171
a(F0.7000000000000028
F14.300000000000011
tp1172
a(F-9.399999999999991
F14.350000000000009
tp1173
a(F8.650000000000006
F14.350000000000009
tp1174
a(F-9.649999999999991
F14.400000000000006
tp1175
a(F-9.5
F14.400000000000006
tp1176
a(F0.6000000000000085
F14.400000000000006
tp1177
a(F-14.199999999999989
F14.450000000000003
tp1178
a(F0.5
F14.450000000000003
tp1179
a(F-14.099999999999994
F14.5
tp1180
a(F-10.0
F14.5
tp1181
a(F8.650000000000006
F14.5
tp1182
a(F-13.75
F14.550000000000011
tp1183
a(F-9.799999999999997
F14.550000000000011
tp1184
a(F-1.8499999999999943
F14.550000000000011
tp1185
a(F-13.849999999999994
F14.600000000000009
tp1186
a(F-10.299999999999997
F14.600000000000009
tp1187
a(F6.25
F14.600000000000009
tp1188
a(F-13.599999999999994
F14.650000000000006
tp1189
a(F-10.0
F14.650000000000006
tp1190
a(F-13.349999999999994
F14.700000000000003
tp1191
a(F-1.8499999999999943
F14.700000000000003
tp1192
a(F-13.549999999999997
F14.75
tp1193
a(F-13.0
F14.75
tp1194
a(F-10.549999999999997
F14.75
tp1195
a(F6.25
F14.75
tp1196
a(F-12.949999999999989
F14.800000000000011
tp1197
a(F-10.799999999999997
F14.800000000000011
tp1198
a(F0.5500000000000114
F14.800000000000011
tp1199
a(F8.800000000000011
F14.800000000000011
tp1200
a(F-12.799999999999997
F14.850000000000009
tp1201
a(F-11.099999999999994
F14.850000000000009
tp1202
a(F-10.949999999999989
F14.850000000000009
tp1203
a(F6.200000000000003
F14.850000000000009
tp1204
a(F-12.399999999999991
F14.900000000000006
tp1205
a(F-11.949999999999989
F14.900000000000006
tp1206
a(F-11.449999999999989
F14.900000000000006
tp1207
a(F-11.25
F14.900000000000006
tp1208
a(F-10.899999999999991
F14.900000000000006
tp1209
a(F8.700000000000003
F14.900000000000006
tp1210
a(F-12.549999999999997
F14.950000000000003
tp1211
a(F-12.199999999999989
F14.950000000000003
tp1212
a(F-11.849999999999994
F14.950000000000003
tp1213
a(F-10.549999999999997
F14.950000000000003
tp1214
a(F8.650000000000006
F14.950000000000003
tp1215
a(F-11.649999999999991
F15.0
tp1216
a(F0.6500000000000057
F15.050000000000011
tp1217
a(F6.150000000000006
F15.100000000000009
tp1218
a(F-1.8999999999999915
F15.150000000000006
tp1219
a(F6.200000000000003
F15.200000000000003
tp1220
a(F0.5500000000000114
F15.25
tp1221
a(F8.700000000000003
F15.25
tp1222
a(F-1.7999999999999972
F15.300000000000011
tp1223
a(F6.150000000000006
F15.350000000000009
tp1224
a(F6.200000000000003
F15.400000000000006
tp1225
a(F-1.8499999999999943
F15.450000000000003
tp1226
a(F0.7000000000000028
F15.5
tp1227
a(F0.5500000000000114
F15.550000000000011
tp1228
a(F8.650000000000006
F15.550000000000011
tp1229
a(F-1.7999999999999972
F15.600000000000009
tp1230
a(F6.25
F15.650000000000006
tp1231
a(F6.200000000000003
F15.700000000000003
tp1232
a(F-1.8499999999999943
F15.75
tp1233
a(F0.6500000000000057
F15.800000000000011
tp1234
a(F-1.8999999999999915
F15.850000000000009
tp1235
a(F8.650000000000006
F15.850000000000009
tp1236
a(F6.200000000000003
F15.900000000000006
tp1237
a(F8.800000000000011
F15.950000000000003
tp1238
a(F0.6000000000000085
F16.0
tp1239
a(F8.700000000000003
F16.0
tp1240
a(F-1.7999999999999972
F16.05000000000001
tp1241
a(F6.300000000000011
F16.150000000000006
tp1242
a(F0.6000000000000085
F16.200000000000003
tp1243
a(F0.5500000000000114
F16.25
tp1244
a(F6.300000000000011
F16.30000000000001
tp1245
a(F-1.9499999999999886
F16.35000000000001
tp1246
a(F-1.8999999999999915
F16.400000000000006
tp1247
a(F8.75
F16.400000000000006
tp1248
a(F6.25
F16.450000000000003
tp1249
a(F-1.8499999999999943
F16.5
tp1250
a(F6.200000000000003
F16.55000000000001
tp1251
a(F-1.8999999999999915
F16.650000000000006
tp1252
a(F0.75
F16.650000000000006
tp1253
a(F6.200000000000003
F16.700000000000003
tp1254
a(F0.7000000000000028
F16.75
tp1255
a(F-1.8499999999999943
F16.80000000000001
tp1256
a(F-1.7999999999999972
F16.85000000000001
tp1257
a(F-1.8999999999999915
F16.900000000000006
tp1258
a(F-2.0
F16.950000000000003
tp1259
a(F0.6500000000000057
F16.950000000000003
tp1260
a(F-1.9499999999999886
F17.0
tp1261
a(F8.700000000000003
F17.05000000000001
tp1262
a(F0.5500000000000114
F17.10000000000001
tp1263
a(F6.25
F17.150000000000006
tp1264
a(F6.200000000000003
F17.200000000000003
tp1265
a(F8.850000000000009
F17.25
tp1266
a(F0.6000000000000085
F17.30000000000001
tp1267
a(F-1.8999999999999915
F17.35000000000001
tp1268
a(F-1.8499999999999943
F17.400000000000006
tp1269
a(F0.5500000000000114
F17.450000000000003
tp1270
a(F0.6000000000000085
F17.5
tp1271
a(F-1.8999999999999915
F17.55000000000001
tp1272
a(F6.3500000000000085
F17.55000000000001
tp1273
a(F9.150000000000006
F17.60000000000001
tp1274
a(F6.400000000000006
F17.650000000000006
tp1275
a(F-1.8999999999999915
F17.700000000000003
tp1276
a(F0.6000000000000085
F17.700000000000003
tp1277
a(F0.5500000000000114
F17.75
tp1278
a(F6.450000000000003
F17.80000000000001
tp1279
a(F9.450000000000003
F17.85000000000001
tp1280
a(F-2.0
F17.950000000000003
tp1281
a(F6.450000000000003
F17.950000000000003
tp1282
a(F-1.8999999999999915
F18.0
tp1283
a(F9.600000000000009
F18.0
tp1284
a(F0.5500000000000114
F18.10000000000001
tp1285
a(F6.5
F18.10000000000001
tp1286
a(F-1.8499999999999943
F18.150000000000006
tp1287
a(F0.75
F18.200000000000003
tp1288
a(F9.800000000000011
F18.25
tp1289
a(F-1.7999999999999972
F18.30000000000001
tp1290
a(F9.850000000000009
F18.30000000000001
tp1291
a(F6.6000000000000085
F18.35000000000001
tp1292
a(F0.6500000000000057
F18.400000000000006
tp1293
a(F-1.8499999999999943
F18.450000000000003
tp1294
a(F6.800000000000011
F18.450000000000003
tp1295
a(F-1.7999999999999972
F18.55000000000001
tp1296
a(F10.100000000000009
F18.55000000000001
tp1297
a(F-1.8499999999999943
F18.60000000000001
tp1298
a(F10.150000000000006
F18.60000000000001
tp1299
a(F6.6000000000000085
F18.650000000000006
tp1300
a(F-1.8999999999999915
F18.75
tp1301
a(F6.900000000000006
F18.75
tp1302
a(F10.350000000000009
F18.75
tp1303
a(F0.6000000000000085
F18.85000000000001
tp1304
a(F-1.9499999999999886
F18.900000000000006
tp1305
a(F6.950000000000003
F18.900000000000006
tp1306
a(F0.6500000000000057
F18.950000000000003
tp1307
a(F0.6000000000000085
F19.0
tp1308
a(F-1.8999999999999915
F19.05000000000001
tp1309
a(F-1.7999999999999972
F19.10000000000001
tp1310
a(F0.6500000000000057
F19.150000000000006
tp1311
a(F7.300000000000011
F19.150000000000006
tp1312
a(F7.400000000000006
F19.200000000000003
tp1313
a(F-1.7999999999999972
F19.25
tp1314
a(F7.450000000000003
F19.25
tp1315
a(F11.200000000000003
F19.25
tp1316
a(F11.600000000000009
F19.25
tp1317
a(F11.850000000000009
F19.25
tp1318
a(F12.550000000000011
F19.25
tp1319
a(F13.100000000000009
F19.25
tp1320
a(F13.400000000000006
F19.25
tp1321
a(F14.100000000000009
F19.25
tp1322
a(F-1.75
F19.30000000000001
tp1323
a(F11.75
F19.30000000000001
tp1324
a(F12.450000000000003
F19.30000000000001
tp1325
a(F13.200000000000003
F19.30000000000001
tp1326
a(F13.550000000000011
F19.30000000000001
tp1327
a(F13.900000000000006
F19.30000000000001
tp1328
a(F14.300000000000011
F19.30000000000001
tp1329
a(F11.450000000000003
F19.35000000000001
tp1330
a(F14.400000000000006
F19.35000000000001
tp1331
a(F-1.7999999999999972
F19.400000000000006
tp1332
a(F7.5
F19.400000000000006
tp1333
a(F-1.75
F19.450000000000003
tp1334
a(F7.6000000000000085
F19.450000000000003
tp1335
a(F14.800000000000011
F19.450000000000003
tp1336
a(F7.700000000000003
F19.5
tp1337
a(F-1.7999999999999972
F19.55000000000001
tp1338
a(F1.1000000000000085
F19.55000000000001
tp1339
a(F-1.8499999999999943
F19.60000000000001
tp1340
a(F15.25
F19.60000000000001
tp1341
a(F7.75
F19.650000000000006
tp1342
a(F7.700000000000003
F19.700000000000003
tp1343
a(F15.300000000000011
F19.700000000000003
tp1344
a(F1.2000000000000028
F19.75
tp1345
a(F-1.75
F19.80000000000001
tp1346
a(F15.75
F19.80000000000001
tp1347
a(F1.25
F19.85000000000001
tp1348
a(F1.3000000000000114
F19.900000000000006
tp1349
a(F8.0
F19.900000000000006
tp1350
a(F1.3500000000000085
F19.950000000000003
tp1351
a(F15.75
F19.950000000000003
tp1352
a(F1.5500000000000114
F20.0
tp1353
a(F16.0
F20.0
tp1354
a(F8.200000000000003
F20.05000000000001
tp1355
a(F15.900000000000006
F20.05000000000001
tp1356
a(F-1.5499999999999972
F20.10000000000001
tp1357
a(F16.10000000000001
F20.10000000000001
tp1358
a(F1.6500000000000057
F20.150000000000006
tp1359
a(F8.25
F20.200000000000003
tp1360
a(F-1.5499999999999972
F20.25
tp1361
a(F8.400000000000006
F20.30000000000001
tp1362
a(F8.300000000000011
F20.35000000000001
tp1363
a(F16.25
F20.35000000000001
tp1364
a(F1.8500000000000085
F20.400000000000006
tp1365
a(F1.9000000000000057
F20.450000000000003
tp1366
a(F16.5
F20.450000000000003
tp1367
a(F-1.4499999999999886
F20.55000000000001
tp1368
a(F8.650000000000006
F20.55000000000001
tp1369
a(F-1.3499999999999943
F20.60000000000001
tp1370
a(F8.75
F20.60000000000001
tp1371
a(F16.60000000000001
F20.650000000000006
tp1372
a(F-1.1999999999999886
F20.700000000000003
tp1373
a(F16.650000000000006
F20.700000000000003
tp1374
a(F2.1500000000000057
F20.75
tp1375
a(F2.25
F20.80000000000001
tp1376
a(F-1.1499999999999915
F20.85000000000001
tp1377
a(F16.700000000000003
F20.85000000000001
tp1378
a(F2.4000000000000057
F20.900000000000006
tp1379
a(F16.85000000000001
F20.900000000000006
tp1380
a(F9.100000000000009
F20.950000000000003
tp1381
a(F-1.0999999999999943
F21.05000000000001
tp1382
a(F9.050000000000011
F21.05000000000001
tp1383
a(F9.350000000000009
F21.05000000000001
tp1384
a(F2.75
F21.10000000000001
tp1385
a(F16.900000000000006
F21.10000000000001
tp1386
a(F9.300000000000011
F21.150000000000006
tp1387
a(F17.0
F21.150000000000006
tp1388
a(F9.550000000000011
F21.200000000000003
tp1389
a(F-0.75
F21.30000000000001
tp1390
a(F17.0
F21.30000000000001
tp1391
a(F-0.6499999999999915
F21.35000000000001
tp1392
a(F9.700000000000003
F21.35000000000001
tp1393
a(F2.8500000000000085
F21.400000000000006
tp1394
a(F-0.5
F21.450000000000003
tp1395
a(F9.900000000000006
F21.450000000000003
tp1396
a(F2.950000000000003
F21.5
tp1397
a(F9.950000000000003
F21.5
tp1398
a(F3.0500000000000114
F21.55000000000001
tp1399
a(F17.25
F21.55000000000001
tp1400
a(F-0.3999999999999915
F21.60000000000001
tp1401
a(F10.350000000000009
F21.60000000000001
tp1402
a(F10.600000000000009
F21.60000000000001
tp1403
a(F10.200000000000003
F21.650000000000006
tp1404
a(F11.150000000000006
F21.650000000000006
tp1405
a(F11.950000000000003
F21.650000000000006
tp1406
a(F12.200000000000003
F21.650000000000006
tp1407
a(F12.700000000000003
F21.650000000000006
tp1408
a(F13.5
F21.650000000000006
tp1409
a(F10.550000000000011
F21.700000000000003
tp1410
a(F11.0
F21.700000000000003
tp1411
a(F11.25
F21.700000000000003
tp1412
a(F11.550000000000011
F21.700000000000003
tp1413
a(F11.700000000000003
F21.700000000000003
tp1414
a(F12.150000000000006
F21.700000000000003
tp1415
a(F12.75
F21.700000000000003
tp1416
a(F13.0
F21.700000000000003
tp1417
a(F13.600000000000009
F21.700000000000003
tp1418
a(F17.200000000000003
F21.700000000000003
tp1419
a(F17.35000000000001
F21.700000000000003
tp1420
a(F11.350000000000009
F21.75
tp1421
a(F12.350000000000009
F21.75
tp1422
a(F14.200000000000003
F21.75
tp1423
a(F14.100000000000009
F21.80000000000001
tp1424
a(F14.350000000000009
F21.85000000000001
tp1425
a(F-0.25
F21.900000000000006
tp1426
a(F17.450000000000003
F21.900000000000006
tp1427
a(F17.400000000000006
F21.950000000000003
tp1428
a(F3.450000000000003
F22.0
tp1429
a(F14.5
F22.0
tp1430
a(F0.10000000000000853
F22.10000000000001
tp1431
a(F3.6000000000000085
F22.10000000000001
tp1432
a(F17.400000000000006
F22.10000000000001
tp1433
a(F14.650000000000006
F22.150000000000006
tp1434
a(F0.25
F22.200000000000003
tp1435
a(F0.30000000000001137
F22.30000000000001
tp1436
a(F3.75
F22.30000000000001
tp1437
a(F17.5
F22.30000000000001
tp1438
a(F3.8500000000000085
F22.400000000000006
tp1439
a(F17.55000000000001
F22.400000000000006
tp1440
a(F14.900000000000006
F22.450000000000003
tp1441
a(F17.5
F22.450000000000003
tp1442
a(F0.5500000000000114
F22.55000000000001
tp1443
a(F0.6500000000000057
F22.60000000000001
tp1444
a(F17.450000000000003
F22.60000000000001
tp1445
a(F15.050000000000011
F22.650000000000006
tp1446
a(F4.200000000000003
F22.700000000000003
tp1447
a(F4.300000000000011
F22.75
tp1448
a(F17.60000000000001
F22.75
tp1449
a(F15.050000000000011
F22.80000000000001
tp1450
a(F17.55000000000001
F22.85000000000001
tp1451
a(F17.5
F22.900000000000006
tp1452
a(F15.050000000000011
F22.950000000000003
tp1453
a(F4.5
F23.0
tp1454
a(F17.55000000000001
F23.0
tp1455
a(F4.6000000000000085
F23.10000000000001
tp1456
a(F4.650000000000006
F23.150000000000006
tp1457
a(F17.55000000000001
F23.150000000000006
tp1458
a(F1.3000000000000114
F23.25
tp1459
a(F4.8500000000000085
F23.30000000000001
tp1460
a(F1.3500000000000085
F23.35000000000001
tp1461
a(F4.900000000000006
F23.35000000000001
tp1462
a(F17.450000000000003
F23.400000000000006
tp1463
a(F4.950000000000003
F23.450000000000003
tp1464
a(F1.6000000000000085
F23.5
tp1465
a(F17.5
F23.5
tp1466
a(F5.050000000000011
F23.55000000000001
tp1467
a(F5.300000000000011
F23.60000000000001
tp1468
a(F1.75
F23.650000000000006
tp1469
a(F17.5
F23.650000000000006
tp1470
a(F17.55000000000001
F23.700000000000003
tp1471
a(F5.3500000000000085
F23.80000000000001
tp1472
a(F17.5
F23.80000000000001
tp1473
a(F1.9000000000000057
F23.900000000000006
tp1474
a(F2.0500000000000114
F23.950000000000003
tp1475
a(F17.5
F23.950000000000003
tp1476
a(F5.550000000000011
F24.0
tp1477
a(F14.850000000000009
F24.05000000000001
tp1478
a(F14.75
F24.10000000000001
tp1479
a(F2.1500000000000057
F24.150000000000006
tp1480
a(F2.25
F24.200000000000003
tp1481
a(F5.75
F24.200000000000003
tp1482
a(F14.650000000000006
F24.25
tp1483
a(F14.550000000000011
F24.30000000000001
tp1484
a(F2.5
F24.35000000000001
tp1485
a(F2.3500000000000085
F24.400000000000006
tp1486
a(F17.400000000000006
F24.400000000000006
tp1487
a(F2.450000000000003
F24.5
tp1488
a(F14.200000000000003
F24.5
tp1489
a(F6.3500000000000085
F24.55000000000001
tp1490
a(F6.700000000000003
F24.55000000000001
tp1491
a(F6.950000000000003
F24.55000000000001
tp1492
a(F7.650000000000006
F24.55000000000001
tp1493
a(F8.800000000000011
F24.55000000000001
tp1494
a(F10.5
F24.55000000000001
tp1495
a(F11.400000000000006
F24.55000000000001
tp1496
a(F6.450000000000003
F24.60000000000001
tp1497
a(F7.0
F24.60000000000001
tp1498
a(F7.400000000000006
F24.60000000000001
tp1499
a(F7.6000000000000085
F24.60000000000001
tp1500
a(F8.100000000000009
F24.60000000000001
tp1501
a(F8.300000000000011
F24.60000000000001
tp1502
a(F8.5
F24.60000000000001
tp1503
a(F9.0
F24.60000000000001
tp1504
a(F9.400000000000006
F24.60000000000001
tp1505
a(F9.700000000000003
F24.60000000000001
tp1506
a(F10.25
F24.60000000000001
tp1507
a(F11.900000000000006
F24.60000000000001
tp1508
a(F12.050000000000011
F24.60000000000001
tp1509
a(F13.950000000000003
F24.60000000000001
tp1510
a(F10.150000000000006
F24.650000000000006
tp1511
a(F10.700000000000003
F24.650000000000006
tp1512
a(F11.0
F24.650000000000006
tp1513
a(F11.25
F24.650000000000006
tp1514
a(F11.600000000000009
F24.650000000000006
tp1515
a(F12.150000000000006
F24.650000000000006
tp1516
a(F12.5
F24.650000000000006
tp1517
a(F13.100000000000009
F24.650000000000006
tp1518
a(F13.350000000000009
F24.650000000000006
tp1519
a(F13.650000000000006
F24.650000000000006
tp1520
a(F17.200000000000003
F24.650000000000006
tp1521
a(F17.25
F24.700000000000003
tp1522
a(F17.150000000000006
F24.80000000000001
tp1523
a(F2.950000000000003
F24.950000000000003
tp1524
a(F17.10000000000001
F24.950000000000003
tp1525
a(F17.05000000000001
F25.05000000000001
tp1526
a(F3.200000000000003
F25.10000000000001
tp1527
a(F3.25
F25.150000000000006
tp1528
a(F3.3000000000000114
F25.200000000000003
tp1529
a(F16.900000000000006
F25.30000000000001
tp1530
a(F3.4000000000000057
F25.35000000000001
tp1531
a(F3.3000000000000114
F25.400000000000006
tp1532
a(F16.80000000000001
F25.400000000000006
tp1533
a(F3.450000000000003
F25.55000000000001
tp1534
a(F16.75
F25.55000000000001
tp1535
a(F3.6500000000000057
F25.650000000000006
tp1536
a(F16.60000000000001
F25.700000000000017
tp1537
a(F3.9000000000000057
F25.75
tp1538
a(F3.8000000000000114
F25.849999999999994
tp1539
a(F16.5
F25.849999999999994
tp1540
a(F4.1000000000000085
F25.950000000000017
tp1541
a(F4.0
F26.0
tp1542
a(F16.200000000000003
F26.05000000000001
tp1543
a(F16.25
F26.099999999999994
tp1544
a(F4.300000000000011
F26.150000000000006
tp1545
a(F4.200000000000003
F26.200000000000017
tp1546
a(F15.950000000000003
F26.25
tp1547
a(F4.3500000000000085
F26.30000000000001
tp1548
a(F15.900000000000006
F26.400000000000006
tp1549
a(F15.800000000000011
F26.450000000000017
tp1550
a(F15.75
F26.5
tp1551
a(F4.700000000000003
F26.55000000000001
tp1552
a(F15.600000000000009
F26.55000000000001
tp1553
a(F4.8500000000000085
F26.599999999999994
tp1554
a(F4.900000000000006
F26.650000000000006
tp1555
a(F5.1000000000000085
F26.700000000000017
tp1556
a(F15.300000000000011
F26.700000000000017
tp1557
a(F15.050000000000011
F26.75
tp1558
a(F5.300000000000011
F26.80000000000001
tp1559
a(F5.150000000000006
F26.849999999999994
tp1560
a(F14.900000000000006
F26.849999999999994
tp1561
a(F5.700000000000003
F26.900000000000006
tp1562
a(F14.800000000000011
F26.900000000000006
tp1563
a(F5.6000000000000085
F26.950000000000017
tp1564
a(F6.0
F26.950000000000017
tp1565
a(F8.650000000000006
F26.950000000000017
tp1566
a(F14.600000000000009
F26.950000000000017
tp1567
a(F6.200000000000003
F27.0
tp1568
a(F6.6000000000000085
F27.0
tp1569
a(F7.150000000000006
F27.0
tp1570
a(F7.900000000000006
F27.0
tp1571
a(F8.600000000000009
F27.0
tp1572
a(F8.950000000000003
F27.0
tp1573
a(F9.650000000000006
F27.0
tp1574
a(F11.850000000000009
F27.0
tp1575
a(F14.450000000000003
F27.0
tp1576
a(F5.950000000000003
F27.05000000000001
tp1577
a(F6.5
F27.05000000000001
tp1578
a(F7.050000000000011
F27.05000000000001
tp1579
a(F7.300000000000011
F27.05000000000001
tp1580
a(F7.800000000000011
F27.05000000000001
tp1581
a(F8.050000000000011
F27.05000000000001
tp1582
a(F9.350000000000009
F27.05000000000001
tp1583
a(F9.75
F27.05000000000001
tp1584
a(F9.900000000000006
F27.05000000000001
tp1585
a(F10.200000000000003
F27.05000000000001
tp1586
a(F10.5
F27.05000000000001
tp1587
a(F11.300000000000011
F27.05000000000001
tp1588
a(F11.450000000000003
F27.05000000000001
tp1589
a(F12.200000000000003
F27.05000000000001
tp1590
a(F12.600000000000009
F27.05000000000001
tp1591
a(F13.050000000000011
F27.05000000000001
tp1592
a(F13.850000000000009
F27.05000000000001
tp1593
a(F14.200000000000003
F27.05000000000001
tp1594
a(F8.150000000000006
F27.099999999999994
tp1595
a(F9.300000000000011
F27.099999999999994
tp1596
a(F10.25
F27.099999999999994
tp1597
a(F11.100000000000009
F27.099999999999994
tp1598
a(F11.950000000000003
F27.099999999999994
tp1599
a(F12.350000000000009
F27.099999999999994
tp1600
a(F12.650000000000006
F27.099999999999994
tp1601
a(F13.0
F27.099999999999994
tp1602
a(F13.400000000000006
F27.099999999999994
tp1603
a(F13.950000000000003
F27.099999999999994
tp1604
a(F9.150000000000006
F27.150000000000006
tp1605
a(F11.850000000000009
F27.150000000000006
tp1606
a(F13.200000000000003
F27.150000000000006
tp1607
a(F13.75
F27.150000000000006
tp1608
a.